target datalayout = "e-m:e-p270:32:32-p271:32:32-p272:64:64-i64:64-i128:128-f80:128-n8:16:32:64-S128"
target triple = "x86_64-pc-linux-gnu"

%struct.ZSTD_customMem = type { ptr, ptr, ptr }
%struct.ZSTD_frameParameters = type { i32, i32, i32 }
%struct.ZSTD_compressionParameters = type { i32, i32, i32, i32, i32, i32, i32 }
%struct.ZSTD_CCtx_s = type { i32, i32, i32, %struct.ZSTD_CCtx_params_s, %struct.ZSTD_CCtx_params_s, %struct.ZSTD_CCtx_params_s, i32, i64, %struct.ZSTD_cwksp, i64, i64, i64, i64, %struct.XXH64_state_s, %struct.ZSTD_customMem, ptr, i64, %struct.SeqCollector, i32, i32, %struct.seqStore_t, %struct.ldmState_t, ptr, i64, %struct.rawSeqStore_t, %struct.ZSTD_blockState_t, ptr, i32, ptr, i64, i64, i64, i64, ptr, i64, i64, i64, i32, i32, %struct.ZSTD_inBuffer_s, i64, i64, %struct.ZSTD_localDict, ptr, %struct.ZSTD_prefixDict_s, i64, %struct.ZSTD_blockSplitCtx, %struct.ZSTD_externalMatchCtx }
%struct.ZSTD_CCtx_params_s = type { i32, %struct.ZSTD_compressionParameters, %struct.ZSTD_frameParameters, i32, i32, i64, i32, i32, i32, i32, i64, i32, i32, %struct.ldmParams_t, i32, i32, i32, i32, i32, i32, i32, i32, %struct.ZSTD_customMem, i32, i32, i32, i64, i32 }
%struct.ldmParams_t = type { i32, i32, i32, i32, i32, i32 }
%struct.ZSTD_cwksp = type { ptr, ptr, ptr, ptr, ptr, ptr, ptr, i8, i32, i32, i32 }
%struct.XXH64_state_s = type { i64, [4 x i64], [4 x i64], i32, i32, i64 }
%struct.SeqCollector = type { i32, ptr, i64, i64 }
%struct.seqStore_t = type { ptr, ptr, ptr, ptr, ptr, ptr, ptr, i64, i64, i32, i32 }
%struct.ldmState_t = type { %struct.ZSTD_window_t, ptr, i32, ptr, [64 x i64], [64 x %struct.ldmMatchCandidate_t] }
%struct.ZSTD_window_t = type { ptr, ptr, ptr, i32, i32, i32 }
%struct.ldmMatchCandidate_t = type { ptr, i32, i32, ptr }
%struct.rawSeqStore_t = type { ptr, i64, i64, i64, i64 }
%struct.ZSTD_blockState_t = type { ptr, ptr, %struct.ZSTD_matchState_t }
%struct.ZSTD_matchState_t = type { %struct.ZSTD_window_t, i32, i32, i32, i32, ptr, [8 x i32], i64, i32, ptr, ptr, ptr, i32, i32, %struct.optState_t, ptr, %struct.ZSTD_compressionParameters, ptr, i32, i32 }
%struct.optState_t = type { ptr, ptr, ptr, ptr, ptr, ptr, i32, i32, i32, i32, i32, i32, i32, i32, i32, ptr, i32 }
%struct.ZSTD_inBuffer_s = type { ptr, i64, i64 }
%struct.ZSTD_localDict = type { ptr, ptr, i64, i32, ptr }
%struct.ZSTD_prefixDict_s = type { ptr, i64, i32 }
%struct.ZSTD_blockSplitCtx = type { %struct.seqStore_t, %struct.seqStore_t, %struct.seqStore_t, %struct.seqStore_t, %struct.seqStore_t, [196 x i32], %struct.ZSTD_entropyCTablesMetadata_t }
%struct.ZSTD_entropyCTablesMetadata_t = type { %struct.ZSTD_hufCTablesMetadata_t, %struct.ZSTD_fseCTablesMetadata_t }
%struct.ZSTD_hufCTablesMetadata_t = type { i32, [128 x i8], i64 }
%struct.ZSTD_fseCTablesMetadata_t = type { i32, i32, i32, [133 x i8], i64, i64 }
%struct.ZSTD_externalMatchCtx = type { ptr, ptr, ptr, i64 }

; Function Attrs: nounwind uwtable
define internal i32 @ZSTD_isUpdateAuthorized(i32 noundef %0) #0 {
  %2 = alloca i32, align 4
  %3 = alloca i32, align 4
  store i32 %0, ptr %3, align 4
  %4 = load i32, ptr %3, align 4
  switch i32 %4, label %7 [
    i32 100, label %5
    i32 102, label %5
    i32 103, label %5
    i32 104, label %5
    i32 105, label %5
    i32 106, label %5
    i32 107, label %5
    i32 10, label %6
    i32 101, label %6
    i32 200, label %6
    i32 201, label %6
    i32 202, label %6
    i32 1000, label %6
    i32 400, label %6
    i32 401, label %6
    i32 402, label %6
    i32 500, label %6
    i32 1005, label %6
    i32 160, label %6
    i32 161, label %6
    i32 162, label %6
    i32 163, label %6
    i32 164, label %6
    i32 1001, label %6
    i32 1002, label %6
    i32 1003, label %6
    i32 1004, label %6
    i32 1006, label %6
    i32 1007, label %6
    i32 1008, label %6
    i32 1009, label %6
    i32 1010, label %6
    i32 1011, label %6
    i32 1012, label %6
    i32 1013, label %6
    i32 1014, label %6
    i32 1015, label %6
    i32 1016, label %6
  ]

5:                                                ; preds = %1, %1, %1, %1, %1, %1, %1
  store i32 1, ptr %2, align 4
  br label %8

6:                                                ; preds = %1, %1, %1, %1, %1, %1, %1, %1, %1, %1, %1, %1, %1, %1, %1, %1, %1, %1, %1, %1, %1, %1, %1, %1, %1, %1, %1, %1, %1, %1, %1
  br label %7

7:                                                ; preds = %6, %1
  store i32 0, ptr %2, align 4
  br label %8

8:                                                ; preds = %7, %5
  %9 = load i32, ptr %2, align 4
  ret i32 %9
}

; Function Attrs: nounwind uwtable
define dso_local i64 @ZSTD_CCtx_setParameter(ptr noundef %0, i32 noundef %1, i32 noundef %2) #0 {
  %4 = alloca i64, align 8
  %5 = alloca ptr, align 8
  %6 = alloca i32, align 4
  %7 = alloca i32, align 4
  store ptr %0, ptr %5, align 8
  store i32 %1, ptr %6, align 4
  store i32 %2, ptr %7, align 4
  %8 = load ptr, ptr %5, align 8
  %9 = getelementptr inbounds %struct.ZSTD_CCtx_s, ptr %8, i32 0, i32 37
  %10 = load i32, ptr %9, align 8
  %11 = icmp ne i32 %10, 0
  br i1 %11, label %12, label %23

12:                                               ; preds = %3
  %13 = load i32, ptr %6, align 4
  %14 = call i32 @ZSTD_isUpdateAuthorized(i32 noundef %13)
  %15 = icmp ne i32 %14, 0
  br i1 %15, label %16, label %19

16:                                               ; preds = %12
  %17 = load ptr, ptr %5, align 8
  %18 = getelementptr inbounds %struct.ZSTD_CCtx_s, ptr %17, i32 0, i32 1
  store i32 1, ptr %18, align 4
  br label %22

19:                                               ; preds = %12
  br label %20

20:                                               ; preds = %19
  store i64 -60, ptr %4, align 8
  br label %45

21:                                               ; No predecessors!
  br label %22

22:                                               ; preds = %21, %16
  br label %23

23:                                               ; preds = %22, %3
  %24 = load i32, ptr %6, align 4
  switch i32 %24, label %36 [
    i32 400, label %25
    i32 100, label %35
    i32 101, label %35
    i32 102, label %35
    i32 103, label %35
    i32 104, label %35
    i32 105, label %35
    i32 106, label %35
    i32 107, label %35
    i32 164, label %35
    i32 10, label %35
    i32 200, label %35
    i32 201, label %35
    i32 202, label %35
    i32 1000, label %35
    i32 1001, label %35
    i32 1002, label %35
    i32 401, label %35
    i32 402, label %35
    i32 500, label %35
    i32 1005, label %35
    i32 160, label %35
    i32 161, label %35
    i32 162, label %35
    i32 163, label %35
    i32 1003, label %35
    i32 1004, label %35
    i32 1006, label %35
    i32 1007, label %35
    i32 1008, label %35
    i32 1009, label %35
    i32 1010, label %35
    i32 1011, label %35
    i32 1012, label %35
    i32 1013, label %35
    i32 1014, label %35
    i32 1015, label %35
    i32 1016, label %35
  ]

25:                                               ; preds = %23
  %26 = load i32, ptr %7, align 4
  %27 = icmp ne i32 %26, 0
  br i1 %27, label %28, label %34

28:                                               ; preds = %25
  %29 = load ptr, ptr %5, align 8
  %30 = getelementptr inbounds %struct.ZSTD_CCtx_s, ptr %29, i32 0, i32 16
  %31 = load i64, ptr %30, align 8
  %32 = icmp ne i64 %31, 0
  br i1 %32, label %33, label %34

33:                                               ; preds = %28
  store i64 -40, ptr %4, align 8
  br label %45

34:                                               ; preds = %28, %25
  br label %39

35:                                               ; preds = %23, %23, %23, %23, %23, %23, %23, %23, %23, %23, %23, %23, %23, %23, %23, %23, %23, %23, %23, %23, %23, %23, %23, %23, %23, %23, %23, %23, %23, %23, %23, %23, %23, %23, %23, %23, %23
  br label %39

36:                                               ; preds = %23
  br label %37

37:                                               ; preds = %36
  store i64 -40, ptr %4, align 8
  br label %45

38:                                               ; No predecessors!
  br label %39

39:                                               ; preds = %38, %35, %34
  %40 = load ptr, ptr %5, align 8
  %41 = getelementptr inbounds %struct.ZSTD_CCtx_s, ptr %40, i32 0, i32 3
  %42 = load i32, ptr %6, align 4
  %43 = load i32, ptr %7, align 4
  %44 = call i64 @ZSTD_CCtxParams_setParameter(ptr noundef %41, i32 noundef %42, i32 noundef %43)
  store i64 %44, ptr %4, align 8
  br label %45

45:                                               ; preds = %39, %37, %33, %20
  %46 = load i64, ptr %4, align 8
  ret i64 %46
}